; Function Attrs: mustprogress nofree norecurse nosync nounwind willreturn memory(argmem: read) uwtable
define range(i32 0, 2) i32 @uprv_decNumberIsNormal_77(ptr noundef readonly captures(none) %0, ptr noundef readonly captures(none) %1) local_unnamed_addr #9 {
  %3 = getelementptr inbounds nuw i8, ptr %0, i64 8
  %4 = load i8, ptr %3, align 4, !tbaa !3
  %5 = and i8 %4, 112
  %.not = icmp eq i8 %5, 0
  br i1 %.not, label %6, label %17

6:                                                ; preds = %2
  %7 = getelementptr inbounds nuw i8, ptr %0, i64 9
  %8 = load i8, ptr %7, align 1, !tbaa !10
  %9 = icmp eq i8 %8, 0
  %.pre = load i32, ptr %0, align 4, !tbaa !9
  %10 = icmp eq i32 %.pre, 1
  %or.cond = select i1 %9, i1 %10, i1 false
  br i1 %or.cond, label %17, label %11

11:                                               ; preds = %6
  %12 = getelementptr inbounds nuw i8, ptr %0, i64 4
  %13 = load i32, ptr %12, align 4, !tbaa !8
  %14 = add nsw i32 %.pre, %13
  %15 = getelementptr inbounds nuw i8, ptr %1, i64 8
  %16 = load i32, ptr %15, align 4, !tbaa !35
  %.not9 = icmp sgt i32 %14, %16
  %. = zext i1 %.not9 to i32
  br label %17

17:                                               ; preds = %6, %11, %2
  %.0 = phi i32 [ 0, %2 ], [ %., %11 ], [ 0, %6 ]
  ret i32 %.0
}